(dp1
S'output'
p2
S"<type 'exceptions.TypeError'> first argument must be callable"
p3
sS'layer'
p4
S'A:\\web2py\\applications\\BootUp\\controllers/user.py'
p5
sS'code'
p6
S"# This is a controller for user actions (like logging in, checking their user profile, etc.)\nimport copy\n\n\n# This page creates a new user, or updates an existing user based on whether a user is logged in.\n# If a user is logged in, then it automatically goes to editing mode.\n# Otherwise goes to signup mode.\ndef signup_or_edit():\n\n    if session.logged_in_user:\n        # Edit form\n        # form = SQLFORM(db.user, db.credit_card, db.address, )\n        print(' ')\n    else:\n\n        # I'm deep-copying the fields from the DB tables because I'm not sure if otherwise side-effects would not be\n        # introduced when changing the name of the fields\n        billing_street_address = copy.deepcopy(db.address.street_address)\n        billing_street_address.name = 'billing_street_address'\n\n        billing_city = copy.deepcopy(db.address.city)\n        billing_city.name = 'billing_city'\n\n        billing_country = copy.deepcopy(db.address.country)\n        billing_country.name = 'billing_country'\n\n        billing_postcode = copy.deepcopy(db.address.postcode)\n        billing_postcode.name = 'billing_postcode'\n\n        # Create form\n        form = SQLFORM.factory(db.user,\n                               db.address,\n                               db.credit_card,\n                               # next we mimick the address fields in case credit card doesn't use the same address\n                               # TODO ZE CHECKBOX\n                               billing_street_address,\n                               billing_city,\n                               billing_country,\n                               billing_postcode)\n\n    return dict(form=form)\n\n\n# This is the log-in action. It is a simplified log-in (no password, just username), as no security is to be implemented\n# for the purpose of this assessment\ndef login():\n\n    # # If 'error' exists on the request arguments, then flash it\n    # # This is used to display reasons why the user was redirected to the login page, if that is indeed how it got here\n    # if request.vars.error:\n    #     response.flash = request.vars.error\n\n    form = FORM(INPUT(_name='username', requires=IS_IN_DB(db, db.user.username, error_message='The user cannot be found; please try again')),\n                INPUT(_type='submit'))\n\n    if form.process(formname='login_form').accepted:\n        session.flash = 'Hello, ' + form.vars.username\n        log_user_in(form.vars.username)\n        if (request.vars.next_c is not None) & (request.vars.next_f is not None):\n            redirect(URL(request.vars.next_c, request.vars.next_f, vars=request.vars))\n        else:\n            redirect(URL('default', 'index'))\n\n            # TODO\n\n    return dict(form=form)\n\n\n# This is the action of editing your own user data.\n# Requires the user to be logged in\ndef edit():\n    check_and_redirect()\n    return dict()\n\n\n# Pretty straightforward: logs the user out\ndef logout():\n    session.flash = 'Hope to see you again soon!'\n    log_user_out()\n    response.flash = session.logged_in_user\n    redirect(URL('default', 'index'))\n\n\n# This controller retrieves and passes on to the view a list of objects that display information about\n# the pledges that the user has made to bootables.\ndef my_pledges():\n\n    check_and_redirect()\n    username = session.logged_in_user\n\n    user = db(db.user.username == username).select().first()\n\n    pledges = db(db.pledge.user == user).select(db.pledge.ALL)\n\n    display_objects = []\n\n    for pledge in pledges:\n        bootable = db(db.bootable.id == pledge.bootable.id).select().first()\n\n        # that is a function found in the db.py model\n        reward_string = generate_rewards_string(pledge)\n\n        display_object = {\n            'id':bootable.id,\n            'title':bootable.title,\n            'value':pledge.value,\n            'rewards':reward_string,\n            'funded_so_far':bootable.funded_so_far,\n            'funding_goal':bootable.funding_goal,\n            'status':bootable.status\n        }\n\n        display_objects.append(display_object)\n\n    return dict(results=display_objects)\n\n\n# This control gathers up the information required for the BM dashboard. That is, it collects the information on the\n# BM's bootables, and generates a list of available actions to be performed on that bootable. Then it passes this\n# information to be displayed in the view\ndef dashboard():\n\n    # The following three functions generate elements that take a certain action upon the given bootable.\n    # Used to ease the generation of the actions for the state machine\n    # There's a bit more about that below in this function\n    def delete_action(bootable):\n        return A('Delete', _class='btn', _href=URL('delete_bootable', vars={'id':bootable.id}))\n\n    def open_for_pledges_action(bootable):\n        return A('Open for Pledges', _class='btn', _href=URL('open_for_pledges', vars={'id':bootable.id}))\n\n    def close_action(bootable):\n        return A('Close', _class='btn', _href=URL('close_bootable', vars={'id':bootable.id}))\n\n    check_and_redirect()\n    username = session.logged_in_user\n\n    user = db(db.user.username == username).select().first()\n\n    bootables = db(db.bootable.user == user).select(db.bootable.ALL);\n\n    display_objects = []\n\n    for bootable in bootables:\n\n        # This next bit before the construction of the display_object executes part of the state machine of the bootable\n        # It is only a part of it because the transition 'Open For Pledges' -> 'Funded' is automatic\n        # For the diagram of the state machine, check the design document\n\n        if bootable.status == 'Not Available':\n            # Aside from the state machine actions, projects in this state can also be edited\n            actions = [delete_action(bootable),\n                       open_for_pledges_action(bootable),\n                       A('Edit Information', _class='btn', _href=URL('bootable', 'edit', vars={'bootable':bootable.id})),  # Edit the bootable\n                       A('Edit Rewards', _class='btn', _href=URL('bootable', 'edit_rewards', vars={'bootable':bootable.id}))]  # Edit the rewards\n        elif bootable.status == 'Open For Pledges':\n            actions = [close_action(bootable)]\n        elif bootable.status == 'Funded':\n            actions = [delete_action(bootable)]\n        elif bootable.status == 'Not Funded':\n            actions = [delete_action(bootable), open_for_pledges_action(bootable)]\n\n        display_object = {\n            'bootable': bootable,\n            'actions': actions\n        }\n\n        display_objects.append(display_object)\n\n    return dict(results=display_objects)\n\n\n# This is the operation to delete a bootable\n# As the assessment is not evaluated for security, the action assumes that the action is legitimately invoked.\n#\n# This operation also produces feedback via the web2py 'flash'\n#\n# INPUT: the request has to have an attribute named 'id' which is the ID of the bootable on which the operation\n# will be performed\n# TODO Test delete stuff\ndef delete_bootable():\n    bootable = db(db.bootable.id == request.vars.id).select(db.bootable.title).first()\n    session.flash = 'Deleted the bootable \\'' + bootable.title + '\\''\n    db(db.pledge.bootable.id == request.vars.id).delete()\n    db(db.pledge_tier.bootable.id == request.vars.id).delete()\n    db(db.bootable.id == request.vars.id).delete()\n    redirect(URL('dashboard'))\n    return dict()\n\n\n# This is the operation to open for pledges a bootable\n# As the assessment is not evaluated for security, the action assumes that the action is legitimately invoked.\n#\n# This operation also produces feedback via the web2py 'flash'\n#\n# INPUT: the request has to have an attribute named 'id' which is the ID of the bootable on which the operation\n# will be performed\ndef open_for_pledges():\n    bootable = db(db.bootable.id == request.vars.id).select(db.bootable.title).first()\n    session.flash = 'Opened the bootable \\'' + bootable.title + '\\' for pledges'\n    db(db.bootable.id == request.vars.id).update(status='Open For Pledges')\n    redirect(URL('dashboard'))\n    return dict()\n\n\n# This is the operation to 'close' a bootable\n# As the assessment is not evaluated for security, the action assumes that the action is legitimately invoked.\n#\n# This operation also produces feedback via the web2py 'flash'\n\n# INPUT: the request has to have an attribute named 'id' which is the ID of the bootable on which the operation\n# will be performed\ndef close_bootable():\n    bootable = db(db.bootable.id == request.vars.id).select(db.bootable.title).first()\n    session.flash = 'Closed the bootable \\'' + bootable.title + '\\'. It is no longer available for pledging.'\n    db(db.bootable.id == request.vars.id).update(status='Not Funded')\n    redirect(URL('dashboard'))\n    return dict()\nresponse._vars=response._caller(signup_or_edit)\n"
p7
sS'snapshot'
p8
(dp9
S'exception'
p10
(dp11
S'__hash__'
p12
S"<method-wrapper '__hash__' of exceptions.TypeError object>"
p13
sS'__setattr__'
p14
S"<method-wrapper '__setattr__' of exceptions.TypeError object>"
p15
sS'__reduce_ex__'
p16
S'<built-in method __reduce_ex__ of exceptions.TypeError object>'
p17
sS'__getslice__'
p18
S"<method-wrapper '__getslice__' of exceptions.TypeError object>"
p19
sS'__getitem__'
p20
S"<method-wrapper '__getitem__' of exceptions.TypeError object>"
p21
sS'__setstate__'
p22
S'<built-in method __setstate__ of exceptions.TypeError object>'
p23
sS'__reduce__'
p24
S'<built-in method __reduce__ of exceptions.TypeError object>'
p25
sS'__str__'
p26
S"<method-wrapper '__str__' of exceptions.TypeError object>"
p27
sS'__format__'
p28
S'<built-in method __format__ of exceptions.TypeError object>'
p29
sS'__getattribute__'
p30
S"<method-wrapper '__getattribute__' of exceptions.TypeError object>"
p31
sS'__class__'
p32
S"<type 'exceptions.TypeError'>"
p33
sS'__unicode__'
p34
S'<built-in method __unicode__ of exceptions.TypeError object>'
p35
sS'__delattr__'
p36
S"<method-wrapper '__delattr__' of exceptions.TypeError object>"
p37
sS'__subclasshook__'
p38
S'<built-in method __subclasshook__ of type object>'
p39
sS'__repr__'
p40
S"<method-wrapper '__repr__' of exceptions.TypeError object>"
p41
sS'__dict__'
p42
S'{}'
p43
sS'args'
p44
S"('first argument must be callable',)"
p45
sS'__sizeof__'
p46
S'<built-in method __sizeof__ of exceptions.TypeError object>'
p47
sS'__doc__'
p48
S"'Inappropriate argument type.'"
p49
sS'__init__'
p50
S"<method-wrapper '__init__' of exceptions.TypeError object>"
p51
sS'__new__'
p52
S'<built-in method __new__ of type object>'
p53
ssS'evalue'
p54
S'first argument must be callable'
p55
sS'request'
p56
cgluon.html
XML_unpickle
p57
(S's\xc5g\x00\x00<div><table><tr><td style="font-weight:bold;vertical-align:top;">ajax</td><td style="vertical-align:top;">:</td><td><div>False</div></td></tr><tr><td style="font-weight:bold;vertical-align:top;">application</td><td style="vertical-align:top;">:</td><td><div>BootUp</div></td></tr><tr><td style="font-weight:bold;vertical-align:top;">args</td><td style="vertical-align:top;">:</td><td><div><table></table></div></td></tr><tr><td style="font-weight:bold;vertical-align:top;">cid</td><td style="vertical-align:top;">:</td><td><div>None</div></td></tr><tr><td style="font-weight:bold;vertical-align:top;">client</td><td style="vertical-align:top;">:</td><td><div>127.0.0.1</div></td></tr><tr><td style="font-weight:bold;vertical-align:top;">controller</td><td style="vertical-align:top;">:</td><td><div>user</div></td></tr><tr><td style="font-weight:bold;vertical-align:top;">cookies</td><td style="vertical-align:top;">:</td><td><div><table><tr><td style="font-weight:bold;vertical-align:top;">session_id_admin</td><td style="vertical-align:top;">:</td><td><div>127.0.0.1-3af0fdd9-b0dc-4c42-adff-d611662f167e<table><tr><td style="font-weight:bold;vertical-align:top;">comment</td><td style="vertical-align:top;">:</td><td><div></div></td></tr><tr><td style="font-weight:bold;vertical-align:top;">domain</td><td style="vertical-align:top;">:</td><td><div></div></td></tr><tr><td style="font-weight:bold;vertical-align:top;">expires</td><td style="vertical-align:top;">:</td><td><div></div></td></tr><tr><td style="font-weight:bold;vertical-align:top;">httponly</td><td style="vertical-align:top;">:</td><td><div></div></td></tr><tr><td style="font-weight:bold;vertical-align:top;">max-age</td><td style="vertical-align:top;">:</td><td><div></div></td></tr><tr><td style="font-weight:bold;vertical-align:top;">path</td><td style="vertical-align:top;">:</td><td><div></div></td></tr><tr><td style="font-weight:bold;vertical-align:top;">secure</td><td style="vertical-align:top;">:</td><td><div></div></td></tr><tr><td style="font-weight:bold;vertical-align:top;">version</td><td style="vertical-align:top;">:</td><td><div></div></td></tr></table></div></td></tr><tr><td style="font-weight:bold;vertical-align:top;">session_id_bootup</td><td style="vertical-align:top;">:</td><td><div>127.0.0.1-7036423d-bd2f-4d5b-8506-bfb7189c9fb1<table><tr><td style="font-weight:bold;vertical-align:top;">comment</td><td style="vertical-align:top;">:</td><td><div></div></td></tr><tr><td style="font-weight:bold;vertical-align:top;">domain</td><td style="vertical-align:top;">:</td><td><div></div></td></tr><tr><td style="font-weight:bold;vertical-align:top;">expires</td><td style="vertical-align:top;">:</td><td><div></div></td></tr><tr><td style="font-weight:bold;vertical-align:top;">httponly</td><td style="vertical-align:top;">:</td><td><div></div></td></tr><tr><td style="font-weight:bold;vertical-align:top;">max-age</td><td style="vertical-align:top;">:</td><td><div></div></td></tr><tr><td style="font-weight:bold;vertical-align:top;">path</td><td style="vertical-align:top;">:</td><td><div></div></td></tr><tr><td style="font-weight:bold;vertical-align:top;">secure</td><td style="vertical-align:top;">:</td><td><div></div></td></tr><tr><td style="font-weight:bold;vertical-align:top;">version</td><td style="vertical-align:top;">:</td><td><div></div></td></tr></table></div></td></tr><tr><td style="font-weight:bold;vertical-align:top;">session_id_defaults</td><td style="vertical-align:top;">:</td><td><div>127.0.0.1-20925d01-0eec-4bb1-a121-23f513f16f74<table><tr><td style="font-weight:bold;vertical-align:top;">comment</td><td style="vertical-align:top;">:</td><td><div></div></td></tr><tr><td style="font-weight:bold;vertical-align:top;">domain</td><td style="vertical-align:top;">:</td><td><div></div></td></tr><tr><td style="font-weight:bold;vertical-align:top;">expires</td><td style="vertical-align:top;">:</td><td><div></div></td></tr><tr><td style="font-weight:bold;vertical-align:top;">httponly</td><td style="vertical-align:top;">:</td><td><div></div></td></tr><tr><td style="font-weight:bold;vertical-align:top;">max-age</td><td style="vertical-align:top;">:</td><td><div></div></td></tr><tr><td style="font-weight:bold;vertical-align:top;">path</td><td style="vertical-align:top;">:</td><td><div></div></td></tr><tr><td style="font-weight:bold;vertical-align:top;">secure</td><td style="vertical-align:top;">:</td><td><div></div></td></tr><tr><td style="font-weight:bold;vertical-align:top;">version</td><td style="vertical-align:top;">:</td><td><div></div></td></tr></table></div></td></tr><tr><td style="font-weight:bold;vertical-align:top;">session_id_kjngfdgkjn</td><td style="vertical-align:top;">:</td><td><div>127.0.0.1-33b2f988-eb1c-4dd8-adde-e6b2b588f92a<table><tr><td style="font-weight:bold;vertical-align:top;">comment</td><td style="vertical-align:top;">:</td><td><div></div></td></tr><tr><td style="font-weight:bold;vertical-align:top;">domain</td><td style="vertical-align:top;">:</td><td><div></div></td></tr><tr><td style="font-weight:bold;vertical-align:top;">expires</td><td style="vertical-align:top;">:</td><td><div></div></td></tr><tr><td style="font-weight:bold;vertical-align:top;">httponly</td><td style="vertical-align:top;">:</td><td><div></div></td></tr><tr><td style="font-weight:bold;vertical-align:top;">max-age</td><td style="vertical-align:top;">:</td><td><div></div></td></tr><tr><td style="font-weight:bold;vertical-align:top;">path</td><td style="vertical-align:top;">:</td><td><div></div></td></tr><tr><td style="font-weight:bold;vertical-align:top;">secure</td><td style="vertical-align:top;">:</td><td><div></div></td></tr><tr><td style="font-weight:bold;vertical-align:top;">version</td><td style="vertical-align:top;">:</td><td><div></div></td></tr></table></div></td></tr><tr><td style="font-weight:bold;vertical-align:top;">session_id_welcome</td><td style="vertical-align:top;">:</td><td><div>127.0.0.1-1bf6f9fe-148c-4699-8cc6-4c1de2b5d998<table><tr><td style="font-weight:bold;vertical-align:top;">comment</td><td style="vertical-align:top;">:</td><td><div></div></td></tr><tr><td style="font-weight:bold;vertical-align:top;">domain</td><td style="vertical-align:top;">:</td><td><div></div></td></tr><tr><td style="font-weight:bold;vertical-align:top;">expires</td><td style="vertical-align:top;">:</td><td><div></div></td></tr><tr><td style="font-weight:bold;vertical-align:top;">httponly</td><td style="vertical-align:top;">:</td><td><div></div></td></tr><tr><td style="font-weight:bold;vertical-align:top;">max-age</td><td style="vertical-align:top;">:</td><td><div></div></td></tr><tr><td style="font-weight:bold;vertical-align:top;">path</td><td style="vertical-align:top;">:</td><td><div></div></td></tr><tr><td style="font-weight:bold;vertical-align:top;">secure</td><td style="vertical-align:top;">:</td><td><div></div></td></tr><tr><td style="font-weight:bold;vertical-align:top;">version</td><td style="vertical-align:top;">:</td><td><div></div></td></tr></table></div></td></tr></table></div></td></tr><tr><td style="font-weight:bold;vertical-align:top;">env</td><td style="vertical-align:top;">:</td><td><div><table><tr><td style="font-weight:bold;vertical-align:top;">HTTP_ACCEPT</td><td style="vertical-align:top;">:</td><td><div>text/html,application/xhtml+xml,application/xml;q=0.9,image/webp,*/*;q=0.8</div></td></tr><tr><td style="font-weight:bold;vertical-align:top;">HTTP_ACCEPT_ENCODING</td><td style="vertical-align:top;">:</td><td><div>gzip, deflate, sdch</div></td></tr><tr><td style="font-weight:bold;vertical-align:top;">HTTP_ACCEPT_LANGUAGE</td><td style="vertical-align:top;">:</td><td><div>en-US,en;q=0.8,en-GB;q=0.6,lt;q=0.4</div></td></tr><tr><td style="font-weight:bold;vertical-align:top;">HTTP_CONNECTION</td><td style="vertical-align:top;">:</td><td><div>keep-alive</div></td></tr><tr><td style="font-weight:bold;vertical-align:top;">HTTP_COOKIE</td><td style="vertical-align:top;">:</td><td><div>session_id_defaults=127.0.0.1-20925d01-0eec-4bb1-a121-23f513f16f74; session_id_kjngfdgkjn=127.0.0.1-33b2f988-eb1c-4dd8-adde-e6b2b588f92a; session_id_welcome=127.0.0.1-1bf6f9fe-148c-4699-8cc6-4c1de2b5d998; session_id_admin=127.0.0.1-3af0fdd9-b0dc-4c42-adff-d611662f167e; session_id_bootup=127.0.0.1-7036423d-bd2f-4d5b-8506-bfb7189c9fb1</div></td></tr><tr><td style="font-weight:bold;vertical-align:top;">HTTP_HOST</td><td style="vertical-align:top;">:</td><td><div>127.0.0.1:8000</div></td></tr><tr><td style="font-weight:bold;vertical-align:top;">HTTP_REFERER</td><td style="vertical-align:top;">:</td><td><div>http://127.0.0.1:8000/BootUp/user/signup_or_edit</div></td></tr><tr><td style="font-weight:bold;vertical-align:top;">HTTP_USER_AGENT</td><td style="vertical-align:top;">:</td><td><div>Mozilla/5.0 (Windows NT 6.3; WOW64) AppleWebKit/537.36 (KHTML, like Gecko) Chrome/39.0.2171.71 Safari/537.36</div></td></tr><tr><td style="font-weight:bold;vertical-align:top;">PATH_INFO</td><td style="vertical-align:top;">:</td><td><div>/BootUp/user/signup_or_edit</div></td></tr><tr><td style="font-weight:bold;vertical-align:top;">QUERY_STRING</td><td style="vertical-align:top;">:</td><td><div></div></td></tr><tr><td style="font-weight:bold;vertical-align:top;">REMOTE_ADDR</td><td style="vertical-align:top;">:</td><td><div>127.0.0.1</div></td></tr><tr><td style="font-weight:bold;vertical-align:top;">REMOTE_PORT</td><td style="vertical-align:top;">:</td><td><div>57723</div></td></tr><tr><td style="font-weight:bold;vertical-align:top;">REQUEST_METHOD</td><td style="vertical-align:top;">:</td><td><div>GET</div></td></tr><tr><td style="font-weight:bold;vertical-align:top;">SCRIPT_NAME</td><td style="vertical-align:top;">:</td><td><div></div></td></tr><tr><td style="font-weight:bold;vertical-align:top;">SERVER_NAME</td><td style="vertical-align:top;">:</td><td><div>domus-desktop</div></td></tr><tr><td style="font-weight:bold;vertical-align:top;">SERVER_PORT</td><td style="vertical-align:top;">:</td><td><div>8000</div></td></tr><tr><td style="font-weight:bold;vertical-align:top;">SERVER_PROTOCOL</td><td style="vertical-align:top;">:</td><td><div>HTTP/1.1</div></td></tr><tr><td style="font-weight:bold;vertical-align:top;">SERVER_SOFTWARE</td><td style="vertical-align:top;">:</td><td><div>Rocket 1.2.6</div></td></tr><tr><td style="font-weight:bold;vertical-align:top;">app_folders</td><td style="vertical-align:top;">:</td><td><div>set([&#x27;A:\\\\web2py\\\\applications\\\\BootUp\\\\&#x27;, &#x27;A:\\\\web2py\\\\applications\\\\welcome\\\\&#x27;, &#x27;A:\\\\web2py\\\\applications\\\\admin\\\\&#x27;, &#x27;A:\\\\web2py\\\\applications\\\\kjngfdgkjn\\\\&#x27;])</div></td></tr><tr><td style="font-weight:bold;vertical-align:top;">applications_parent</td><td style="vertical-align:top;">:</td><td><div>A:\\web2py</div></td></tr><tr><td style="font-weight:bold;vertical-align:top;">cmd_args</td><td style="vertical-align:top;">:</td><td><div><table></table></div></td></tr><tr><td style="font-weight:bold;vertical-align:top;">cmd_options</td><td style="vertical-align:top;">:</td><td><div>&lt;Values at 0x3737b08: {&#x27;verbose&#x27;: False, &#x27;ip&#x27;: &#x27;127.0.0.1&#x27;, &#x27;debuglevel&#x27;: 30, &#x27;with_scheduler&#x27;: False, &#x27;ips&#x27;: [&#x27;192.168.0.24&#x27;], &#x27;shutdown_timeout&#x27;: 5, &#x27;taskbar&#x27;: False, &#x27;with_coverage&#x27;: False, &#x27;scheduler_groups&#x27;: None, &#x27;port&#x27;: 8000, &#x27;maxthreads&#x27;: None, &#x27;softcron&#x27;: False, &#x27;server_name&#x27;: &#x27;domus-desktop&#x27;, &#x27;bpython&#x27;: False, &#x27;nogui&#x27;: False, &#x27;pid_filename&#x27;: &#x27;httpserver.pid&#x27;, &#x27;extcron&#x27;: False, &#x27;runcron&#x27;: False, &#x27;run_system_tests&#x27;: False, &#x27;test&#x27;: None, &#x27;folder&#x27;: &#x27;A:\\\\web2py&#x27;, &#x27;config&#x27;: &#x27;&#x27;, &#x27;minthreads&#x27;: None, &#x27;shell&#x27;: None, &#x27;run&#x27;: &#x27;&#x27;, &#x27;log_filename&#x27;: &#x27;httpserver.log&#x27;, &#x27;profiler_dir&#x27;: None, &#x27;args&#x27;: [&#x27;&#x27;], &#x27;socket_timeout&#x27;: 5, &#x27;ssl_ca_certificate&#x27;: None, &#x27;scheduler&#x27;: None, &#x27;interfaces&#x27;: None, &#x27;ssl_private_key&#x27;: &#x27;&#x27;, &#x27;gae&#x27;: None, &#x27;password&#x27;: &#x27;&lt;ask&gt;&#x27;, &#x27;request_queue_size&#x27;: 5, &#x27;ssl_certificate&#x27;: &#x27;&#x27;, &#x27;cronjob&#x27;: False, &#x27;numthreads&#x27;: None, &#x27;quiet&#x27;: False, &#x27;import_models&#x27;: False, &#x27;timeout&#x27;: 10, &#x27;plain&#x27;: False, &#x27;nobanner&#x27;: False}&gt;</div></td></tr><tr><td style="font-weight:bold;vertical-align:top;">db_sessions</td><td style="vertical-align:top;">:</td><td><div>set([])</div></td></tr><tr><td style="font-weight:bold;vertical-align:top;">debugging</td><td style="vertical-align:top;">:</td><td><div>False</div></td></tr><tr><td style="font-weight:bold;vertical-align:top;">gluon_parent</td><td style="vertical-align:top;">:</td><td><div>A:\\web2py</div></td></tr><tr><td style="font-weight:bold;vertical-align:top;">http_accept</td><td style="vertical-align:top;">:</td><td><div>text/html,application/xhtml+xml,application/xml;q=0.9,image/webp,*/*;q=0.8</div></td></tr><tr><td style="font-weight:bold;vertical-align:top;">http_accept_encoding</td><td style="vertical-align:top;">:</td><td><div>gzip, deflate, sdch</div></td></tr><tr><td style="font-weight:bold;vertical-align:top;">http_accept_language</td><td style="vertical-align:top;">:</td><td><div>en-US,en;q=0.8,en-GB;q=0.6,lt;q=0.4</div></td></tr><tr><td style="font-weight:bold;vertical-align:top;">http_connection</td><td style="vertical-align:top;">:</td><td><div>keep-alive</div></td></tr><tr><td style="font-weight:bold;vertical-align:top;">http_cookie</td><td style="vertical-align:top;">:</td><td><div>session_id_defaults=127.0.0.1-20925d01-0eec-4bb1-a121-23f513f16f74; session_id_kjngfdgkjn=127.0.0.1-33b2f988-eb1c-4dd8-adde-e6b2b588f92a; session_id_welcome=127.0.0.1-1bf6f9fe-148c-4699-8cc6-4c1de2b5d998; session_id_admin=127.0.0.1-3af0fdd9-b0dc-4c42-adff-d611662f167e; session_id_bootup=127.0.0.1-7036423d-bd2f-4d5b-8506-bfb7189c9fb1</div></td></tr><tr><td style="font-weight:bold;vertical-align:top;">http_host</td><td style="vertical-align:top;">:</td><td><div>127.0.0.1:8000</div></td></tr><tr><td style="font-weight:bold;vertical-align:top;">http_referer</td><td style="vertical-align:top;">:</td><td><div>http://127.0.0.1:8000/BootUp/user/signup_or_edit</div></td></tr><tr><td style="font-weight:bold;vertical-align:top;">http_user_agent</td><td style="vertical-align:top;">:</td><td><div>Mozilla/5.0 (Windows NT 6.3; WOW64) AppleWebKit/537.36 (KHTML, like Gecko) Chrome/39.0.2171.71 Safari/537.36</div></td></tr><tr><td style="font-weight:bold;vertical-align:top;">is_jython</td><td style="vertical-align:top;">:</td><td><div>False</div></td></tr><tr><td style="font-weight:bold;vertical-align:top;">is_pypy</td><td style="vertical-align:top;">:</td><td><div>False</div></td></tr><tr><td style="font-weight:bold;vertical-align:top;">is_source</td><td style="vertical-align:top;">:</td><td><div>True</div></td></tr><tr><td style="font-weight:bold;vertical-align:top;">local_hosts</td><td style="vertical-align:top;">:</td><td><div><table><tr><td><div>domus-desktop.Home</div></td></tr><tr><td><div>192.168.0.24</div></td></tr><tr><td><div>2001:0:9d38:90d7:851:160a:681c:56e6</div></td></tr><tr><td><div>fe80::3dad:e47d:98ef:ab3e%3</div></td></tr><tr><td><div>::ffff:127.0.0.1</div></td></tr><tr><td><div>::1</div></td></tr><tr><td><div>fe80::851:160a:681c:56e6%5</div></td></tr><tr><td><div>domus-desktop</div></td></tr><tr><td><div>127.0.0.1</div></td></tr></table></div></td></tr><tr><td style="font-weight:bold;vertical-align:top;">path_info</td><td style="vertical-align:top;">:</td><td><div>/BootUp/user/signup_or_edit</div></td></tr><tr><td style="font-weight:bold;vertical-align:top;">query_string</td><td style="vertical-align:top;">:</td><td><div></div></td></tr><tr><td style="font-weight:bold;vertical-align:top;">remote_addr</td><td style="vertical-align:top;">:</td><td><div>127.0.0.1</div></td></tr><tr><td style="font-weight:bold;vertical-align:top;">remote_port</td><td style="vertical-align:top;">:</td><td><div>57723</div></td></tr><tr><td style="font-weight:bold;vertical-align:top;">request_method</td><td style="vertical-align:top;">:</td><td><div>GET</div></td></tr><tr><td style="font-weight:bold;vertical-align:top;">request_uri</td><td style="vertical-align:top;">:</td><td><div>/BootUp/user/signup_or_edit</div></td></tr><tr><td style="font-weight:bold;vertical-align:top;">script_name</td><td style="vertical-align:top;">:</td><td><div></div></td></tr><tr><td style="font-weight:bold;vertical-align:top;">server_name</td><td style="vertical-align:top;">:</td><td><div>domus-desktop</div></td></tr><tr><td style="font-weight:bold;vertical-align:top;">server_port</td><td style="vertical-align:top;">:</td><td><div>8000</div></td></tr><tr><td style="font-weight:bold;vertical-align:top;">server_protocol</td><td style="vertical-align:top;">:</td><td><div>HTTP/1.1</div></td></tr><tr><td style="font-weight:bold;vertical-align:top;">server_software</td><td style="vertical-align:top;">:</td><td><div>Rocket 1.2.6</div></td></tr><tr><td style="font-weight:bold;vertical-align:top;">web2py_path</td><td style="vertical-align:top;">:</td><td><div>A:\\web2py</div></td></tr><tr><td style="font-weight:bold;vertical-align:top;">web2py_version</td><td style="vertical-align:top;">:</td><td><div>2.9.11-stable+timestamp.2014.09.15.23.35.11</div></td></tr><tr><td style="font-weight:bold;vertical-align:top;">wsgi.errors</td><td style="vertical-align:top;">:</td><td><div>&lt;open file &#x27;&lt;stderr&gt;&#x27;, mode &#x27;w&#x27; at 0x00000000020BB150&gt;</div></td></tr><tr><td style="font-weight:bold;vertical-align:top;">wsgi.file_wrapper</td><td style="vertical-align:top;">:</td><td><div>&lt;class wsgiref.util.FileWrapper at 0x0000000003388A08&gt;</div></td></tr><tr><td style="font-weight:bold;vertical-align:top;">wsgi.input</td><td style="vertical-align:top;">:</td><td><div>&lt;socket._fileobject object at 0x000000000915B7C8&gt;</div></td></tr><tr><td style="font-weight:bold;vertical-align:top;">wsgi.multiprocess</td><td style="vertical-align:top;">:</td><td><div>False</div></td></tr><tr><td style="font-weight:bold;vertical-align:top;">wsgi.multithread</td><td style="vertical-align:top;">:</td><td><div>True</div></td></tr><tr><td style="font-weight:bold;vertical-align:top;">wsgi.run_once</td><td style="vertical-align:top;">:</td><td><div>False</div></td></tr><tr><td style="font-weight:bold;vertical-align:top;">wsgi.url_scheme</td><td style="vertical-align:top;">:</td><td><div>http</div></td></tr><tr><td style="font-weight:bold;vertical-align:top;">wsgi.version</td><td style="vertical-align:top;">:</td><td><div><table><tr><td><div>1</div></td></tr><tr><td><div>0</div></td></tr></table></div></td></tr><tr><td style="font-weight:bold;vertical-align:top;">wsgi_errors</td><td style="vertical-align:top;">:</td><td><div>&lt;open file &#x27;&lt;stderr&gt;&#x27;, mode &#x27;w&#x27; at 0x00000000020BB150&gt;</div></td></tr><tr><td style="font-weight:bold;vertical-align:top;">wsgi_file_wrapper</td><td style="vertical-align:top;">:</td><td><div>&lt;class wsgiref.util.FileWrapper at 0x0000000003388A08&gt;</div></td></tr><tr><td style="font-weight:bold;vertical-align:top;">wsgi_input</td><td style="vertical-align:top;">:</td><td><div>&lt;socket._fileobject object at 0x000000000915B7C8&gt;</div></td></tr><tr><td style="font-weight:bold;vertical-align:top;">wsgi_multiprocess</td><td style="vertical-align:top;">:</td><td><div>False</div></td></tr><tr><td style="font-weight:bold;vertical-align:top;">wsgi_multithread</td><td style="vertical-align:top;">:</td><td><div>True</div></td></tr><tr><td style="font-weight:bold;vertical-align:top;">wsgi_run_once</td><td style="vertical-align:top;">:</td><td><div>False</div></td></tr><tr><td style="font-weight:bold;vertical-align:top;">wsgi_url_scheme</td><td style="vertical-align:top;">:</td><td><div>http</div></td></tr><tr><td style="font-weight:bold;vertical-align:top;">wsgi_version</td><td style="vertical-align:top;">:</td><td><div><table><tr><td><div>1</div></td></tr><tr><td><div>0</div></td></tr></table></div></td></tr></table></div></td></tr><tr><td style="font-weight:bold;vertical-align:top;">extension</td><td style="vertical-align:top;">:</td><td><div>html</div></td></tr><tr><td style="font-weight:bold;vertical-align:top;">folder</td><td style="vertical-align:top;">:</td><td><div>A:\\web2py\\applications\\BootUp\\</div></td></tr><tr><td style="font-weight:bold;vertical-align:top;">function</td><td style="vertical-align:top;">:</td><td><div>signup_or_edit</div></td></tr><tr><td style="font-weight:bold;vertical-align:top;">global_settings</td><td style="vertical-align:top;">:</td><td><div><table><tr><td style="font-weight:bold;vertical-align:top;">app_folders</td><td style="vertical-align:top;">:</td><td><div>set([&#x27;A:\\\\web2py\\\\applications\\\\BootUp\\\\&#x27;, &#x27;A:\\\\web2py\\\\applications\\\\welcome\\\\&#x27;, &#x27;A:\\\\web2py\\\\applications\\\\admin\\\\&#x27;, &#x27;A:\\\\web2py\\\\applications\\\\kjngfdgkjn\\\\&#x27;])</div></td></tr><tr><td style="font-weight:bold;vertical-align:top;">applications_parent</td><td style="vertical-align:top;">:</td><td><div>A:\\web2py</div></td></tr><tr><td style="font-weight:bold;vertical-align:top;">cmd_args</td><td style="vertical-align:top;">:</td><td><div><table></table></div></td></tr><tr><td style="font-weight:bold;vertical-align:top;">cmd_options</td><td style="vertical-align:top;">:</td><td><div>&lt;Values at 0x3737b08: {&#x27;verbose&#x27;: False, &#x27;ip&#x27;: &#x27;127.0.0.1&#x27;, &#x27;debuglevel&#x27;: 30, &#x27;with_scheduler&#x27;: False, &#x27;ips&#x27;: [&#x27;192.168.0.24&#x27;], &#x27;shutdown_timeout&#x27;: 5, &#x27;taskbar&#x27;: False, &#x27;with_coverage&#x27;: False, &#x27;scheduler_groups&#x27;: None, &#x27;port&#x27;: 8000, &#x27;maxthreads&#x27;: None, &#x27;softcron&#x27;: False, &#x27;server_name&#x27;: &#x27;domus-desktop&#x27;, &#x27;bpython&#x27;: False, &#x27;nogui&#x27;: False, &#x27;pid_filename&#x27;: &#x27;httpserver.pid&#x27;, &#x27;extcron&#x27;: False, &#x27;runcron&#x27;: False, &#x27;run_system_tests&#x27;: False, &#x27;test&#x27;: None, &#x27;folder&#x27;: &#x27;A:\\\\web2py&#x27;, &#x27;config&#x27;: &#x27;&#x27;, &#x27;minthreads&#x27;: None, &#x27;shell&#x27;: None, &#x27;run&#x27;: &#x27;&#x27;, &#x27;log_filename&#x27;: &#x27;httpserver.log&#x27;, &#x27;profiler_dir&#x27;: None, &#x27;args&#x27;: [&#x27;&#x27;], &#x27;socket_timeout&#x27;: 5, &#x27;ssl_ca_certificate&#x27;: None, &#x27;scheduler&#x27;: None, &#x27;interfaces&#x27;: None, &#x27;ssl_private_key&#x27;: &#x27;&#x27;, &#x27;gae&#x27;: None, &#x27;password&#x27;: &#x27;&lt;ask&gt;&#x27;, &#x27;request_queue_size&#x27;: 5, &#x27;ssl_certificate&#x27;: &#x27;&#x27;, &#x27;cronjob&#x27;: False, &#x27;numthreads&#x27;: None, &#x27;quiet&#x27;: False, &#x27;import_models&#x27;: False, &#x27;timeout&#x27;: 10, &#x27;plain&#x27;: False, &#x27;nobanner&#x27;: False}&gt;</div></td></tr><tr><td style="font-weight:bold;vertical-align:top;">db_sessions</td><td style="vertical-align:top;">:</td><td><div>set([])</div></td></tr><tr><td style="font-weight:bold;vertical-align:top;">debugging</td><td style="vertical-align:top;">:</td><td><div>False</div></td></tr><tr><td style="font-weight:bold;vertical-align:top;">gluon_parent</td><td style="vertical-align:top;">:</td><td><div>A:\\web2py</div></td></tr><tr><td style="font-weight:bold;vertical-align:top;">is_jython</td><td style="vertical-align:top;">:</td><td><div>False</div></td></tr><tr><td style="font-weight:bold;vertical-align:top;">is_pypy</td><td style="vertical-align:top;">:</td><td><div>False</div></td></tr><tr><td style="font-weight:bold;vertical-align:top;">is_source</td><td style="vertical-align:top;">:</td><td><div>True</div></td></tr><tr><td style="font-weight:bold;vertical-align:top;">local_hosts</td><td style="vertical-align:top;">:</td><td><div><table><tr><td><div>domus-desktop.Home</div></td></tr><tr><td><div>192.168.0.24</div></td></tr><tr><td><div>2001:0:9d38:90d7:851:160a:681c:56e6</div></td></tr><tr><td><div>fe80::3dad:e47d:98ef:ab3e%3</div></td></tr><tr><td><div>::ffff:127.0.0.1</div></td></tr><tr><td><div>::1</div></td></tr><tr><td><div>fe80::851:160a:681c:56e6%5</div></td></tr><tr><td><div>domus-desktop</div></td></tr><tr><td><div>127.0.0.1</div></td></tr></table></div></td></tr><tr><td style="font-weight:bold;vertical-align:top;">web2py_version</td><td style="vertical-align:top;">:</td><td><div>2.9.11-stable+timestamp.2014.09.15.23.35.11</div></td></tr></table></div></td></tr><tr><td style="font-weight:bold;vertical-align:top;">is_https</td><td style="vertical-align:top;">:</td><td><div>False</div></td></tr><tr><td style="font-weight:bold;vertical-align:top;">is_local</td><td style="vertical-align:top;">:</td><td><div>True</div></td></tr><tr><td style="font-weight:bold;vertical-align:top;">is_restful</td><td style="vertical-align:top;">:</td><td><div>False</div></td></tr><tr><td style="font-weight:bold;vertical-align:top;">is_sheduler</td><td style="vertical-align:top;">:</td><td><div>None</div></td></tr><tr><td style="font-weight:bold;vertical-align:top;">is_shell</td><td style="vertical-align:top;">:</td><td><div>None</div></td></tr><tr><td style="font-weight:bold;vertical-align:top;">now</td><td style="vertical-align:top;">:</td><td><div>datetime.datetime(2014, 12, 3, 3, 42, 2, 789000)</div></td></tr><tr><td style="font-weight:bold;vertical-align:top;">raw_args</td><td style="vertical-align:top;">:</td><td><div></div></td></tr><tr><td style="font-weight:bold;vertical-align:top;">raw_extension</td><td style="vertical-align:top;">:</td><td><div>None</div></td></tr><tr><td style="font-weight:bold;vertical-align:top;">url</td><td style="vertical-align:top;">:</td><td><div>/BootUp/user/signup_or_edit</div></td></tr><tr><td style="font-weight:bold;vertical-align:top;">utcnow</td><td style="vertical-align:top;">:</td><td><div>datetime.datetime(2014, 12, 3, 3, 42, 2, 789000)</div></td></tr><tr><td style="font-weight:bold;vertical-align:top;">uuid</td><td style="vertical-align:top;">:</td><td><div>BootUp/127.0.0.1.2014-12-03.03-42-02.e490c1e3-17e1-4c06-80c7-8b6e65c51335</div></td></tr><tr><td style="font-weight:bold;vertical-align:top;">wsgi</td><td style="vertical-align:top;">:</td><td><div>&lt;gluon.main.LazyWSGI object at 0x0000000003F5DBE0&gt;</div></td></tr></table></div>'
tRp58
sS'frames'
p59
(lp60
(dp61
S'file'
p62
S'A:\\web2py\\gluon\\restricted.py'
p63
sS'dump'
p64
(dp65
S'environment'
p66
S"{'A': <class 'gluon.html.A'>, 'ANY_OF': <class 'gluon.validators.ANY_OF'>, 'ASSIGNJS': <function ASSIGNJS>, 'B': <class 'gluon.html.B'>, 'BEAUTIFY': <class 'gluon.html.BEAUTIFY'>, 'BODY': <class 'gluon.html.BODY'>, 'BR': <class 'gluon.html.BR'>, 'BUTTON': <class 'gluon.html.BUTTON'>, 'CAT': <class 'gluon.html.CAT'>, 'CENTER': <class 'gluon.html.CENTER'>, ...}"
p67
sS'ccode'
p68
S'<code object <module> at 000000000432A130, file ...applications\\BootUp\\controllers/user.py", line 2>'
p69
ssS'lnum'
p70
I224
sS'lines'
p71
(dp72
I224
S'        exec ccode in environment'
p73
sI225
S'    except HTTP:'
p74
sI226
S'        raise'
p75
sI227
S'    except RestrictedError:'
p76
sI228
S'        # do not encapsulate (obfuscate) the original RestrictedError'
p77
sI219
S'    try:'
p78
sI220
S'        if isinstance(code, types.CodeType):'
p79
sI221
S'            ccode = code'
p80
sI222
S'        else:'
p81
sI223
S'            ccode = compile2(code, layer)'
p82
ssS'call'
p83
S"(code='# This is a controller for user actions (like lo...\\nresponse._vars=response._caller(signup_or_edit)\\n', environment={'A': <class 'gluon.html.A'>, 'ANY_OF': <class 'gluon.validators.ANY_OF'>, 'ASSIGNJS': <function ASSIGNJS>, 'B': <class 'gluon.html.B'>, 'BEAUTIFY': <class 'gluon.html.BEAUTIFY'>, 'BODY': <class 'gluon.html.BODY'>, 'BR': <class 'gluon.html.BR'>, 'BUTTON': <class 'gluon.html.BUTTON'>, 'CAT': <class 'gluon.html.CAT'>, 'CENTER': <class 'gluon.html.CENTER'>, ...}, layer=r'A:\\web2py\\applications\\BootUp\\controllers/user.py')"
p84
sS'func'
p85
S'restricted'
p86
sa(dp87
g62
S'A:\\web2py\\applications\\BootUp\\controllers\\user.py'
p88
sg64
(dp89
sg70
I219
sg71
(dp90
I209
S"# This operation also produces feedback via the web2py 'flash'"
p91
sI210
S''
sI211
S"# INPUT: the request has to have an attribute named 'id' which is the ID of the bootable on which the operation"
p92
sI212
S'# will be performed'
p93
sI213
S'def close_bootable():'
p94
sI214
S'    bootable = db(db.bootable.id == request.vars.id).select(db.bootable.title).first()'
p95
sI215
S"    session.flash = 'Closed the bootable \\'' + bootable.title + '\\'. It is no longer available for pledging.'"
p96
sI216
S"    db(db.bootable.id == request.vars.id).update(status='Not Funded')"
p97
sI217
S"    redirect(URL('dashboard'))"
p98
sI218
S'    return dict()'
p99
ssg83
S'()'
p100
sg85
S'<module>'
p101
sa(dp102
g62
S'A:\\web2py\\gluon\\globals.py'
p103
sg64
(dp104
S'self'
p105
S'undefined'
p106
sS'f'
S'<function signup_or_edit>'
p107
ssg70
I392
sg71
(dp108
I387
S"        self.flash = ''            # used by the default view layout"
p109
sI388
S'        self.meta = Storage()      # used by web2py_ajax.html'
p110
sI389
S'        self.menu = []             # used by the default view layout'
p111
sI390
S'        self.files = []            # used by web2py_ajax.html'
p112
sI391
S'        self._vars = None'
p113
sI392
S'        self._caller = lambda f: f()'
p114
sI393
S'        self._view_environment = None'
p115
sI394
S'        self._custom_commit = None'
p116
sI395
S'        self._custom_rollback = None'
p117
sI396
S"        self.generic_patterns = ['*']"
p118
ssg83
S'(f=<function signup_or_edit>)'
p119
sg85
S'<lambda>'
p120
sa(dp121
g62
S'A:\\web2py\\applications\\BootUp\\controllers\\user.py'
p122
sg64
(dp123
S'global log_user_in'
p124
S'<function log_user_in>'
p125
sS'form'
p126
g106
ssg70
I18
sg71
(dp127
I13
S"        print(' ')"
p128
sI14
S'    else:'
p129
sI15
S''
sI16
S"        # I'm deep-copying the fields from the DB tables because I'm not sure if otherwise side-effects would not be"
p130
sI17
S'        # introduced when changing the name of the fields'
p131
sI18
S'        billing_street_address = copy.deepcopy(db.address.street_address)'
p132
sI19
S"        billing_street_address.name = 'billing_street_address'"
p133
sI20
S''
sI21
S'        billing_city = copy.deepcopy(db.address.city)'
p134
sI22
S"        billing_city.name = 'billing_city'"
p135
ssg83
S'()'
p136
sg85
S'signup_or_edit'
p137
sa(dp138
g62
S'A:\\Python27\\lib\\copy.py'
p139
sg64
(dp140
S'y'
S'[]'
p141
sS'x'
S'<gluon.dal.Field object>'
p142
sS'rv'
p143
S'(<function __newobj__>, (<class \'gluon.dal.Field\'>,), {\'_db\': <DAL uri="sqlite://storage.sqlite">, \'_rname\': None, \'_table\': <Table address (id,street_address,city,country,postcode)>, \'_tablename\': \'address\', \'authorize\': None, \'autodelete\': False, \'comment\': None, \'compute\': None, \'custom_delete\': None, \'custom_qualifier\': None, ...}, None, None)'
p144
sS'memo'
p145
S"{34094256L: 'update', 34231160L: 'name', 34232360L: 'id', 34234040L: 'type', 34325008L: 'maxsize', 34431096L: 7, 34431264L: 0, 34643400L: 'default', 34750512L: 'string', 35986008L: 'op', ...}"
p146
sS'global _reconstruct'
p147
S'<function _reconstruct>'
p148
ssg70
I190
sg71
(dp149
I192
S'    memo[d] = y'
p150
sI193
S'    _keep_alive(x, memo) # Make sure x lives at least as long as d'
p151
sI194
S'    return y'
p152
sI185
S'                        if reductor:'
p153
sI186
S'                            rv = reductor()'
p154
sI187
S'                        else:'
p155
sI188
S'                            raise Error('
p156
sI189
S'                                "un(deep)copyable object of type %s" % cls)'
p157
sI190
S'                y = _reconstruct(x, rv, 1, memo)'
p158
sI191
S''
ssg83
S"(x=<gluon.dal.Field object>, memo={34094256L: 'update', 34231160L: 'name', 34232360L: 'id', 34234040L: 'type', 34325008L: 'maxsize', 34431096L: 7, 34431264L: 0, 34643400L: 'default', 34750512L: 'string', 35986008L: 'op', ...}, _nil=[])"
p159
sg85
S'deepcopy'
p160
sa(dp161
g62
S'A:\\Python27\\lib\\copy.py'
p162
sg64
(dp163
S'state'
p164
S'{\'_db\': <DAL uri="sqlite://storage.sqlite">, \'_rname\': None, \'_table\': <Table address (id,street_address,city,country,postcode)>, \'_tablename\': \'address\', \'authorize\': None, \'autodelete\': False, \'comment\': None, \'compute\': None, \'custom_delete\': None, \'custom_qualifier\': None, ...}'
p165
sS'memo'
p166
S"{34094256L: 'update', 34231160L: 'name', 34232360L: 'id', 34234040L: 'type', 34325008L: 'maxsize', 34431096L: 7, 34431264L: 0, 34643400L: 'default', 34750512L: 'string', 35986008L: 'op', ...}"
p167
sS'global deepcopy'
p168
S'<function deepcopy>'
p169
ssg70
I334
sg71
(dp170
I329
S'    y = callable(*args)'
p171
sI330
S'    memo[id(x)] = y'
p172
sI331
S''
sI332
S'    if state:'
p173
sI333
S'        if deep:'
p174
sI334
S'            state = deepcopy(state, memo)'
p175
sI335
S"        if hasattr(y, '__setstate__'):"
p176
sI336
S'            y.__setstate__(state)'
p177
sI337
S'        else:'
p178
sI338
S'            if isinstance(state, tuple) and len(state) == 2:'
p179
ssg83
S'(x=<gluon.dal.Field object>, info=(<function __newobj__>, (<class \'gluon.dal.Field\'>,), {\'_db\': <DAL uri="sqlite://storage.sqlite">, \'_rname\': None, \'_table\': <Table address (id,street_address,city,country,postcode)>, \'_tablename\': \'address\', \'authorize\': None, \'autodelete\': False, \'comment\': None, \'compute\': None, \'custom_delete\': None, \'custom_qualifier\': None, ...}, None, None), deep=1, memo={34094256L: \'update\', 34231160L: \'name\', 34232360L: \'id\', 34234040L: \'type\', 34325008L: \'maxsize\', 34431096L: 7, 34431264L: 0, 34643400L: \'default\', 34750512L: \'string\', 35986008L: \'op\', ...})'
p180
sg85
S'_reconstruct'
p181
sa(dp182
g62
S'A:\\Python27\\lib\\copy.py'
p183
sg64
(dp184
S'y'
S'[]'
p185
sS'x'
S'{\'_db\': <DAL uri="sqlite://storage.sqlite">, \'_rname\': None, \'_table\': <Table address (id,street_address,city,country,postcode)>, \'_tablename\': \'address\', \'authorize\': None, \'autodelete\': False, \'comment\': None, \'compute\': None, \'custom_delete\': None, \'custom_qualifier\': None, ...}'
p186
sS'memo'
p187
S"{34094256L: 'update', 34231160L: 'name', 34232360L: 'id', 34234040L: 'type', 34325008L: 'maxsize', 34431096L: 7, 34431264L: 0, 34643400L: 'default', 34750512L: 'string', 35986008L: 'op', ...}"
p188
sS'copier'
p189
S'<function _deepcopy_dict>'
p190
ssg70
I163
sg71
(dp191
I160
S''
sI161
S'    copier = _deepcopy_dispatch.get(cls)'
p192
sI162
S'    if copier:'
p193
sI163
S'        y = copier(x, memo)'
p194
sI164
S'    else:'
p195
sI165
S'        try:'
p196
sI166
S'            issc = issubclass(cls, type)'
p197
sI167
S'        except TypeError: # cls is not a class (old Boost; see SF #502085)'
p198
sI158
S''
sI159
S'    cls = type(x)'
p199
ssg83
S'(x={\'_db\': <DAL uri="sqlite://storage.sqlite">, \'_rname\': None, \'_table\': <Table address (id,street_address,city,country,postcode)>, \'_tablename\': \'address\', \'authorize\': None, \'autodelete\': False, \'comment\': None, \'compute\': None, \'custom_delete\': None, \'custom_qualifier\': None, ...}, memo={34094256L: \'update\', 34231160L: \'name\', 34232360L: \'id\', 34234040L: \'type\', 34325008L: \'maxsize\', 34431096L: 7, 34431264L: 0, 34643400L: \'default\', 34750512L: \'string\', 35986008L: \'op\', ...}, _nil=[])'
p200
sg85
g160
sa(dp201
g62
S'A:\\Python27\\lib\\copy.py'
p202
sg64
(dp203
S'y'
S'{\'_db\': <DAL uri="sqlite://storage.sqlite">, \'authorize\': None, \'autodelete\': False, \'comment\': None, \'custom_qualifier\': None, \'filter_out\': None, \'represent\': None, \'second\': None, \'uploadfolder\': None, \'uploadfs\': None, ...}'
p204
sS'value'
p205
S'<Table address (id,street_address,city,country,postcode)>'
p206
sS'memo'
p207
S"{34094256L: 'update', 34231160L: 'name', 34232360L: 'id', 34234040L: 'type', 34325008L: 'maxsize', 34431096L: 7, 34431264L: 0, 34643400L: 'default', 34750512L: 'string', 35986008L: 'op', ...}"
p208
sS'global deepcopy'
p209
S'<function deepcopy>'
p210
sS'key'
p211
S"'table'"
p212
ssg70
I257
sg71
(dp213
I256
S'    for key, value in x.iteritems():'
p214
sI257
S'        y[deepcopy(key, memo)] = deepcopy(value, memo)'
p215
sI258
S'    return y'
p216
sI259
S'd[dict] = _deepcopy_dict'
p217
sI260
S'if PyStringMap is not None:'
p218
sI261
S'    d[PyStringMap] = _deepcopy_dict'
p219
sI252
S''
sI253
S'def _deepcopy_dict(x, memo):'
p220
sI254
S'    y = {}'
p221
sI255
S'    memo[id(x)] = y'
p222
ssg83
S'(x={\'_db\': <DAL uri="sqlite://storage.sqlite">, \'_rname\': None, \'_table\': <Table address (id,street_address,city,country,postcode)>, \'_tablename\': \'address\', \'authorize\': None, \'autodelete\': False, \'comment\': None, \'compute\': None, \'custom_delete\': None, \'custom_qualifier\': None, ...}, memo={34094256L: \'update\', 34231160L: \'name\', 34232360L: \'id\', 34234040L: \'type\', 34325008L: \'maxsize\', 34431096L: 7, 34431264L: 0, 34643400L: \'default\', 34750512L: \'string\', 35986008L: \'op\', ...})'
p223
sg85
S'_deepcopy_dict'
p224
sa(dp225
g62
S'A:\\Python27\\lib\\copy.py'
p226
sg64
(dp227
S'y'
S'[]'
p228
sS'x'
S'<Table address (id,street_address,city,country,postcode)>'
p229
sS'rv'
p230
S'(<function __newobj__>, (<class \'gluon.dal.Table\'>,), {\'ALL\': <gluon.dal.SQLALL object>, \'_actual\': True, \'_after_delete\': [], \'_after_insert\': [], \'_after_update\': [], \'_before_delete\': [<unbound method Set.delete_uploaded_files>], \'_before_insert\': [], \'_before_update\': [<unbound method Set.delete_uploaded_files>], \'_common_filter\': None, \'_db\': <DAL uri="sqlite://storage.sqlite">, ...}, None, None)'
p231
sS'memo'
p232
S"{34094256L: 'update', 34231160L: 'name', 34232360L: 'id', 34234040L: 'type', 34325008L: 'maxsize', 34431096L: 7, 34431264L: 0, 34643400L: 'default', 34750512L: 'string', 35986008L: 'op', ...}"
p233
sS'global _reconstruct'
p234
S'<function _reconstruct>'
p235
ssg70
I190
sg71
(dp236
I192
S'    memo[d] = y'
p237
sI193
S'    _keep_alive(x, memo) # Make sure x lives at least as long as d'
p238
sI194
S'    return y'
p239
sI185
S'                        if reductor:'
p240
sI186
S'                            rv = reductor()'
p241
sI187
S'                        else:'
p242
sI188
S'                            raise Error('
p243
sI189
S'                                "un(deep)copyable object of type %s" % cls)'
p244
sI190
S'                y = _reconstruct(x, rv, 1, memo)'
p245
sI191
S''
ssg83
S"(x=<Table address (id,street_address,city,country,postcode)>, memo={34094256L: 'update', 34231160L: 'name', 34232360L: 'id', 34234040L: 'type', 34325008L: 'maxsize', 34431096L: 7, 34431264L: 0, 34643400L: 'default', 34750512L: 'string', 35986008L: 'op', ...}, _nil=[])"
p246
sg85
g160
sa(dp247
g62
S'A:\\Python27\\lib\\copy.py'
p248
sg64
(dp249
S'state'
p250
S'{\'ALL\': <gluon.dal.SQLALL object>, \'_actual\': True, \'_after_delete\': [], \'_after_insert\': [], \'_after_update\': [], \'_before_delete\': [<unbound method Set.delete_uploaded_files>], \'_before_insert\': [], \'_before_update\': [<unbound method Set.delete_uploaded_files>], \'_common_filter\': None, \'_db\': <DAL uri="sqlite://storage.sqlite">, ...}'
p251
sS'memo'
p252
S"{34094256L: 'update', 34231160L: 'name', 34232360L: 'id', 34234040L: 'type', 34325008L: 'maxsize', 34431096L: 7, 34431264L: 0, 34643400L: 'default', 34750512L: 'string', 35986008L: 'op', ...}"
p253
sS'global deepcopy'
p254
S'<function deepcopy>'
p255
ssg70
I334
sg71
(dp256
I329
S'    y = callable(*args)'
p257
sI330
S'    memo[id(x)] = y'
p258
sI331
S''
sI332
S'    if state:'
p259
sI333
S'        if deep:'
p260
sI334
S'            state = deepcopy(state, memo)'
p261
sI335
S"        if hasattr(y, '__setstate__'):"
p262
sI336
S'            y.__setstate__(state)'
p263
sI337
S'        else:'
p264
sI338
S'            if isinstance(state, tuple) and len(state) == 2:'
p265
ssg83
S'(x=<Table address (id,street_address,city,country,postcode)>, info=(<function __newobj__>, (<class \'gluon.dal.Table\'>,), {\'ALL\': <gluon.dal.SQLALL object>, \'_actual\': True, \'_after_delete\': [], \'_after_insert\': [], \'_after_update\': [], \'_before_delete\': [<unbound method Set.delete_uploaded_files>], \'_before_insert\': [], \'_before_update\': [<unbound method Set.delete_uploaded_files>], \'_common_filter\': None, \'_db\': <DAL uri="sqlite://storage.sqlite">, ...}, None, None), deep=1, memo={34094256L: \'update\', 34231160L: \'name\', 34232360L: \'id\', 34234040L: \'type\', 34325008L: \'maxsize\', 34431096L: 7, 34431264L: 0, 34643400L: \'default\', 34750512L: \'string\', 35986008L: \'op\', ...})'
p266
sg85
g181
sa(dp267
g62
S'A:\\Python27\\lib\\copy.py'
p268
sg64
(dp269
S'y'
S'[]'
p270
sS'x'
S'{\'ALL\': <gluon.dal.SQLALL object>, \'_actual\': True, \'_after_delete\': [], \'_after_insert\': [], \'_after_update\': [], \'_before_delete\': [<unbound method Set.delete_uploaded_files>], \'_before_insert\': [], \'_before_update\': [<unbound method Set.delete_uploaded_files>], \'_common_filter\': None, \'_db\': <DAL uri="sqlite://storage.sqlite">, ...}'
p271
sS'memo'
p272
S"{34094256L: 'update', 34231160L: 'name', 34232360L: 'id', 34234040L: 'type', 34325008L: 'maxsize', 34431096L: 7, 34431264L: 0, 34643400L: 'default', 34750512L: 'string', 35986008L: 'op', ...}"
p273
sS'copier'
p274
S'<function _deepcopy_dict>'
p275
ssg70
I163
sg71
(dp276
I160
S''
sI161
S'    copier = _deepcopy_dispatch.get(cls)'
p277
sI162
S'    if copier:'
p278
sI163
S'        y = copier(x, memo)'
p279
sI164
S'    else:'
p280
sI165
S'        try:'
p281
sI166
S'            issc = issubclass(cls, type)'
p282
sI167
S'        except TypeError: # cls is not a class (old Boost; see SF #502085)'
p283
sI158
S''
sI159
S'    cls = type(x)'
p284
ssg83
S'(x={\'ALL\': <gluon.dal.SQLALL object>, \'_actual\': True, \'_after_delete\': [], \'_after_insert\': [], \'_after_update\': [], \'_before_delete\': [<unbound method Set.delete_uploaded_files>], \'_before_insert\': [], \'_before_update\': [<unbound method Set.delete_uploaded_files>], \'_common_filter\': None, \'_db\': <DAL uri="sqlite://storage.sqlite">, ...}, memo={34094256L: \'update\', 34231160L: \'name\', 34232360L: \'id\', 34234040L: \'type\', 34325008L: \'maxsize\', 34431096L: 7, 34431264L: 0, 34643400L: \'default\', 34750512L: \'string\', 35986008L: \'op\', ...}, _nil=[])'
p285
sg85
g160
sa(dp286
g62
S'A:\\Python27\\lib\\copy.py'
p287
sg64
(dp288
S'y'
S'{\'_actual\': True, \'_after_delete\': [], \'_after_update\': [], \'_before_delete\': [<unbound method Set.delete_uploaded_files>], \'_before_insert\': [], \'_db\': <DAL uri="sqlite://storage.sqlite">, \'_dbt\': r\'A:\\web2py\\applications\\BootUp\\databases\\c8b669d15150d7109e5f7ab36744a5b7_address.table\', \'_format\': \'%(street_address)s %(postcode)s\', \'_plural\': \'Addresses\', \'_references\': [], ...}'
p289
sS'value'
p290
S'<gluon.dal.MethodAdder object>'
p291
sS'memo'
p292
S"{34094256L: 'update', 34231160L: 'name', 34232360L: 'id', 34234040L: 'type', 34325008L: 'maxsize', 34431096L: 7, 34431264L: 0, 34643400L: 'default', 34750512L: 'string', 35986008L: 'op', ...}"
p293
sS'global deepcopy'
p294
S'<function deepcopy>'
p295
sS'key'
p296
S"'add_method'"
p297
ssg70
I257
sg71
(dp298
I256
S'    for key, value in x.iteritems():'
p299
sI257
S'        y[deepcopy(key, memo)] = deepcopy(value, memo)'
p300
sI258
S'    return y'
p301
sI259
S'd[dict] = _deepcopy_dict'
p302
sI260
S'if PyStringMap is not None:'
p303
sI261
S'    d[PyStringMap] = _deepcopy_dict'
p304
sI252
S''
sI253
S'def _deepcopy_dict(x, memo):'
p305
sI254
S'    y = {}'
p306
sI255
S'    memo[id(x)] = y'
p307
ssg83
S'(x={\'ALL\': <gluon.dal.SQLALL object>, \'_actual\': True, \'_after_delete\': [], \'_after_insert\': [], \'_after_update\': [], \'_before_delete\': [<unbound method Set.delete_uploaded_files>], \'_before_insert\': [], \'_before_update\': [<unbound method Set.delete_uploaded_files>], \'_common_filter\': None, \'_db\': <DAL uri="sqlite://storage.sqlite">, ...}, memo={34094256L: \'update\', 34231160L: \'name\', 34232360L: \'id\', 34234040L: \'type\', 34325008L: \'maxsize\', 34431096L: 7, 34431264L: 0, 34643400L: \'default\', 34750512L: \'string\', 35986008L: \'op\', ...})'
p308
sg85
g224
sa(dp309
g62
S'A:\\Python27\\lib\\copy.py'
p310
sg64
(dp311
S'y'
S'[]'
p312
sS'memo'
p313
S"{34094256L: 'update', 34231160L: 'name', 34232360L: 'id', 34234040L: 'type', 34325008L: 'maxsize', 34431096L: 7, 34431264L: 0, 34643400L: 'default', 34750512L: 'string', 35986008L: 'op', ...}"
p314
sS'copier'
p315
S'<function _decorated>'
p316
ssg70
I174
sg71
(dp317
I169
S'        if issc:'
p318
sI170
S'            y = _deepcopy_atomic(x, memo)'
p319
sI171
S'        else:'
p320
sI172
S'            copier = getattr(x, "__deepcopy__", None)'
p321
sI173
S'            if copier:'
p322
sI174
S'                y = copier(memo)'
p323
sI175
S'            else:'
p324
sI176
S'                reductor = dispatch_table.get(cls)'
p325
sI177
S'                if reductor:'
p326
sI178
S'                    rv = reductor(x)'
p327
ssg83
S"(x=<gluon.dal.MethodAdder object>, memo={34094256L: 'update', 34231160L: 'name', 34232360L: 'id', 34234040L: 'type', 34325008L: 'maxsize', 34431096L: 7, 34431264L: 0, 34643400L: 'default', 34750512L: 'string', 35986008L: 'op', ...}, _nil=[])"
p328
sg85
g160
sa(dp329
g62
S'A:\\web2py\\gluon\\dal.py'
p330
sg64
(dp331
S'instance.__class__'
p332
S"<class 'gluon.dal.Table'>"
p333
sS'f'
S"{34094256L: 'update', 34231160L: 'name', 34232360L: 'id', 34234040L: 'type', 34325008L: 'maxsize', 34431096L: 7, 34431264L: 0, 34643400L: 'default', 34750512L: 'string', 35986008L: 'op', ...}"
p334
sS'types.MethodType'
p335
S"<type 'instancemethod'>"
p336
sS'instance'
p337
S'<Table address (id,street_address,city,country,postcode)>'
p338
sS'method'
p339
g106
sS'types'
p340
S"<module 'types' from 'A:\\Python27\\lib\\types.pyc'>"
p341
ssg70
I8808
sg71
(dp342
I8803
S''
sI8804
S'    def register(self, method_name=None):'
p343
sI8805
S'        def _decorated(f):'
p344
sI8806
S'            instance = self.table'
p345
sI8807
S'            import types'
p346
sI8808
S'            method = types.MethodType(f, instance, instance.__class__)'
p347
sI8809
S'            name = method_name or f.func_name'
p348
sI8810
S'            setattr(instance, name, method)'
p349
sI8811
S'            return f'
p350
sI8812
S'        return _decorated'
p351
ssg83
S"(f={34094256L: 'update', 34231160L: 'name', 34232360L: 'id', 34234040L: 'type', 34325008L: 'maxsize', 34431096L: 7, 34431264L: 0, 34643400L: 'default', 34750512L: 'string', 35986008L: 'op', ...})"
p352
sg85
S'_decorated'
p353
sasS'pyver'
p354
S'Python 2.7.8: A:\\Python27\\python.exe (prefix: A:\\Python27)'
p355
sS'session'
p356
g57
(S'sD\x02\x00\x00<div><table><tr><td style="font-weight:bold;vertical-align:top;">flash</td><td style="vertical-align:top;">:</td><td><div>None</div></td></tr><tr><td style="font-weight:bold;vertical-align:top;">last_orderby</td><td style="vertical-align:top;">:</td><td><div>None</div></td></tr><tr><td style="font-weight:bold;vertical-align:top;">last_query</td><td style="vertical-align:top;">:</td><td><div>db.pledge.id&gt;0</div></td></tr><tr><td style="font-weight:bold;vertical-align:top;">logged_in_user</td><td style="vertical-align:top;">:</td><td><div>None</div></td></tr></table></div>'
tRp357
sS'etype'
p358
S"<type 'exceptions.TypeError'>"
p359
sS'date'
p360
S'Wed Dec 03 03:42:02 2014'
p361
sS'response'
p362
g57
(S's\xeb"\x00\x00<div><table><tr><td style="font-weight:bold;vertical-align:top;">body</td><td style="vertical-align:top;">:</td><td><div>&lt;cStringIO.StringO object at 0x000000000436C308&gt;</div></td></tr><tr><td style="font-weight:bold;vertical-align:top;">cookies</td><td style="vertical-align:top;">:</td><td><div><table><tr><td style="font-weight:bold;vertical-align:top;">session_id_bootup</td><td style="vertical-align:top;">:</td><td><div>127.0.0.1-7036423d-bd2f-4d5b-8506-bfb7189c9fb1<table><tr><td style="font-weight:bold;vertical-align:top;">comment</td><td style="vertical-align:top;">:</td><td><div></div></td></tr><tr><td style="font-weight:bold;vertical-align:top;">domain</td><td style="vertical-align:top;">:</td><td><div></div></td></tr><tr><td style="font-weight:bold;vertical-align:top;">expires</td><td style="vertical-align:top;">:</td><td><div></div></td></tr><tr><td style="font-weight:bold;vertical-align:top;">httponly</td><td style="vertical-align:top;">:</td><td><div></div></td></tr><tr><td style="font-weight:bold;vertical-align:top;">max-age</td><td style="vertical-align:top;">:</td><td><div></div></td></tr><tr><td style="font-weight:bold;vertical-align:top;">path</td><td style="vertical-align:top;">:</td><td><div>/</div></td></tr><tr><td style="font-weight:bold;vertical-align:top;">secure</td><td style="vertical-align:top;">:</td><td><div></div></td></tr><tr><td style="font-weight:bold;vertical-align:top;">version</td><td style="vertical-align:top;">:</td><td><div></div></td></tr></table></div></td></tr></table></div></td></tr><tr><td style="font-weight:bold;vertical-align:top;">delimiters</td><td style="vertical-align:top;">:</td><td><div><table><tr><td><div>{{</div></td></tr><tr><td><div>}}</div></td></tr></table></div></td></tr><tr><td style="font-weight:bold;vertical-align:top;">files</td><td style="vertical-align:top;">:</td><td><div><table></table></div></td></tr><tr><td style="font-weight:bold;vertical-align:top;">flash</td><td style="vertical-align:top;">:</td><td><div></div></td></tr><tr><td style="font-weight:bold;vertical-align:top;">form_label_separator</td><td style="vertical-align:top;">:</td><td><div>: </div></td></tr><tr><td style="font-weight:bold;vertical-align:top;">formstyle</td><td style="vertical-align:top;">:</td><td><div>table3cols</div></td></tr><tr><td style="font-weight:bold;vertical-align:top;">generic_patterns</td><td style="vertical-align:top;">:</td><td><div><table><tr><td><div>*</div></td></tr></table></div></td></tr><tr><td style="font-weight:bold;vertical-align:top;">google_analytics_id</td><td style="vertical-align:top;">:</td><td><div>None</div></td></tr><tr><td style="font-weight:bold;vertical-align:top;">headers</td><td style="vertical-align:top;">:</td><td><div><table><tr><td style="font-weight:bold;vertical-align:top;">X-Powered-By</td><td style="vertical-align:top;">:</td><td><div>web2py</div></td></tr></table></div></td></tr><tr><td style="font-weight:bold;vertical-align:top;">logo</td><td style="vertical-align:top;">:</td><td><div><a class="brand" href="http://www.web2py.com/"><b>web<span>2</span>py</b>&trade;&nbsp;</a></div></td></tr><tr><td style="font-weight:bold;vertical-align:top;">menu</td><td style="vertical-align:top;">:</td><td><div><table><tr><td><div><table><tr><td><div>Home</div></td></tr><tr><td><div>False</div></td></tr><tr><td><div>/BootUp/default/index</div></td></tr><tr><td><div><table></table></div></td></tr></table></div></td></tr><tr><td><div><table><tr><td><div>Login</div></td></tr><tr><td><div>False</div></td></tr><tr><td><div>/BootUp/user/login</div></td></tr></table></div></td></tr><tr><td><div><table><tr><td><div>Sign up</div></td></tr><tr><td><div>False</div></td></tr><tr><td><div>/BootUp/user/signup</div></td></tr></table></div></td></tr><tr><td><div><table><tr><td><div>Create a Bootable</div></td></tr><tr><td><div>False</div></td></tr><tr><td><div>/BootUp/bootable/create</div></td></tr></table></div></td></tr></table></div></td></tr><tr><td style="font-weight:bold;vertical-align:top;">meta</td><td style="vertical-align:top;">:</td><td><div><table><tr><td style="font-weight:bold;vertical-align:top;">author</td><td style="vertical-align:top;">:</td><td><div>Your Name &lt;you@example.com&gt;</div></td></tr><tr><td style="font-weight:bold;vertical-align:top;">generator</td><td style="vertical-align:top;">:</td><td><div>Web2py Web Framework</div></td></tr><tr><td style="font-weight:bold;vertical-align:top;">keywords</td><td style="vertical-align:top;">:</td><td><div>web2py, python, framework</div></td></tr></table></div></td></tr><tr><td style="font-weight:bold;vertical-align:top;">models_to_run</td><td style="vertical-align:top;">:</td><td><div><table><tr><td><div>^\\w+\\.py$</div></td></tr><tr><td><div>^user/\\w+\\.py$</div></td></tr><tr><td><div>^user/signup_or_edit/\\w+\\.py$</div></td></tr></table></div></td></tr><tr><td style="font-weight:bold;vertical-align:top;">postprocessing</td><td style="vertical-align:top;">:</td><td><div><table></table></div></td></tr><tr><td style="font-weight:bold;vertical-align:top;">search_form</td><td style="vertical-align:top;">:</td><td><div><form action="#" class="navbar-form pull-left" enctype="multipart/form-data" method="post"><input class="span3" name="search_term" placeholder="Search by typing here..." type="text" /><select class="span2" name="search_category"><option value="All Categories">All Categories</option><option value="Art">Art</option><option value="Comics">Comics</option><option value="Crafts">Crafts</option><option value="Fashion">Fashion</option><option value="Film">Film</option><option value="Games">Games</option><option value="Music">Music</option><option value="Photography">Photography</option><option value="Technology">Technology</option></select><button class="btn" style="margin-left:5px" type="submit">Search</button><div style="display:none;"><input name="_formkey" type="hidden" value="39be64f5-a175-4f43-8fe6-b02f2d0811b7" /><input name="_formname" type="hidden" value="search_form" /></div></form></div></td></tr><tr><td style="font-weight:bold;vertical-align:top;">session_client</td><td style="vertical-align:top;">:</td><td><div>127.0.0.1</div></td></tr><tr><td style="font-weight:bold;vertical-align:top;">session_cookie_compression_level</td><td style="vertical-align:top;">:</td><td><div>None</div></td></tr><tr><td style="font-weight:bold;vertical-align:top;">session_cookie_expires</td><td style="vertical-align:top;">:</td><td><div>None</div></td></tr><tr><td style="font-weight:bold;vertical-align:top;">session_cookie_key</td><td style="vertical-align:top;">:</td><td><div>None</div></td></tr><tr><td style="font-weight:bold;vertical-align:top;">session_data_name</td><td style="vertical-align:top;">:</td><td><div>session_data_bootup</div></td></tr><tr><td style="font-weight:bold;vertical-align:top;">session_file</td><td style="vertical-align:top;">:</td><td><div>&lt;open file &#x27;A:\\\\web2py\\\\applications\\\\BootUp\\\\sessions\\\\0f7\\\\1f0\\\\127.0.0.1-7036423d-bd2f-4d5b-8506-bfb7189c9fb1&#x27;, mode &#x27;rb+&#x27; at 0x0000000009F81540&gt;</div></td></tr><tr><td style="font-weight:bold;vertical-align:top;">session_filename</td><td style="vertical-align:top;">:</td><td><div>A:\\web2py\\applications\\BootUp\\sessions\\127.0.0.1-7036423d-bd2f-4d5b-8506-bfb7189c9fb1</div></td></tr><tr><td style="font-weight:bold;vertical-align:top;">session_hash</td><td style="vertical-align:top;">:</td><td><div>7fd96fd13e6d1c20668e60738b544e68</div></td></tr><tr><td style="font-weight:bold;vertical-align:top;">session_id</td><td style="vertical-align:top;">:</td><td><div>127.0.0.1-7036423d-bd2f-4d5b-8506-bfb7189c9fb1</div></td></tr><tr><td style="font-weight:bold;vertical-align:top;">session_id_name</td><td style="vertical-align:top;">:</td><td><div>session_id_bootup</div></td></tr><tr><td style="font-weight:bold;vertical-align:top;">session_locked</td><td style="vertical-align:top;">:</td><td><div>True</div></td></tr><tr><td style="font-weight:bold;vertical-align:top;">session_masterapp</td><td style="vertical-align:top;">:</td><td><div>BootUp</div></td></tr><tr><td style="font-weight:bold;vertical-align:top;">session_new</td><td style="vertical-align:top;">:</td><td><div>False</div></td></tr><tr><td style="font-weight:bold;vertical-align:top;">session_storage_type</td><td style="vertical-align:top;">:</td><td><div>file</div></td></tr><tr><td style="font-weight:bold;vertical-align:top;">status</td><td style="vertical-align:top;">:</td><td><div>200</div></td></tr><tr><td style="font-weight:bold;vertical-align:top;">subtitle</td><td style="vertical-align:top;">:</td><td><div></div></td></tr><tr><td style="font-weight:bold;vertical-align:top;">title</td><td style="vertical-align:top;">:</td><td><div>Bootup</div></td></tr><tr><td style="font-weight:bold;vertical-align:top;">view</td><td style="vertical-align:top;">:</td><td><div>user/signup_or_edit.html</div></td></tr></table></div>'
tRp363
sS'locals'
p364
(dp365
S'method_name'
p366
S"'__deepcopy__'"
p367
sS'instance'
p368
S'<Table address (id,street_address,city,country,postcode)>'
p369
sS'self'
p370
S'<gluon.dal.MethodAdder object>'
p371
sS'types'
p372
S"<module 'types' from 'A:\\Python27\\lib\\types.pyc'>"
p373
sS'f'
S"{34094256L: 'update', 34231160L: 'name', 34232360L: 'id', 34234040L: 'type', 34325008L: 'maxsize', 34431096L: 7, 34431264L: 0, 34643400L: 'default', 34750512L: 'string', 35986008L: 'op', ...}"
p374
sssS'traceback'
p375
S'Traceback (most recent call last):\n  File "A:\\web2py\\gluon\\restricted.py", line 224, in restricted\n    exec ccode in environment\n  File "A:\\web2py\\applications\\BootUp\\controllers/user.py", line 219, in <module>\n  File "A:\\web2py\\gluon\\globals.py", line 392, in <lambda>\n    self._caller = lambda f: f()\n  File "A:\\web2py\\applications\\BootUp\\controllers/user.py", line 18, in signup_or_edit\n    billing_street_address = copy.deepcopy(db.address.street_address)\n  File "A:\\Python27\\lib\\copy.py", line 190, in deepcopy\n    y = _reconstruct(x, rv, 1, memo)\n  File "A:\\Python27\\lib\\copy.py", line 334, in _reconstruct\n    state = deepcopy(state, memo)\n  File "A:\\Python27\\lib\\copy.py", line 163, in deepcopy\n    y = copier(x, memo)\n  File "A:\\Python27\\lib\\copy.py", line 257, in _deepcopy_dict\n    y[deepcopy(key, memo)] = deepcopy(value, memo)\n  File "A:\\Python27\\lib\\copy.py", line 190, in deepcopy\n    y = _reconstruct(x, rv, 1, memo)\n  File "A:\\Python27\\lib\\copy.py", line 334, in _reconstruct\n    state = deepcopy(state, memo)\n  File "A:\\Python27\\lib\\copy.py", line 163, in deepcopy\n    y = copier(x, memo)\n  File "A:\\Python27\\lib\\copy.py", line 257, in _deepcopy_dict\n    y[deepcopy(key, memo)] = deepcopy(value, memo)\n  File "A:\\Python27\\lib\\copy.py", line 174, in deepcopy\n    y = copier(memo)\n  File "A:\\web2py\\gluon\\dal.py", line 8808, in _decorated\n    method = types.MethodType(f, instance, instance.__class__)\nTypeError: first argument must be callable\n'
p376
s.